; Function Attrs: mustprogress nofree norecurse nosync nounwind willreturn memory(read, inaccessiblemem: none) uwtable
define noundef i32 @_ZNK3gmx25AnalysisDataAverageModule11sampleCountEii(ptr nocapture noundef nonnull readonly align 8 dereferenceable(112) %0, i32 noundef %1, i32 noundef %2) local_unnamed_addr #12 align 2 {
  %4 = getelementptr inbounds i8, ptr %0, i64 104
  %5 = load ptr, ptr %4, align 8
  %6 = getelementptr inbounds i8, ptr %5, i64 24
  %7 = load i8, ptr %6, align 8
  %8 = trunc i8 %7 to i1
  %spec.select = select i1 %8, i32 %2, i32 %1
  %spec.select5 = select i1 %8, i32 %1, i32 %2
  %9 = sext i32 %spec.select to i64
  %10 = load ptr, ptr %5, align 8
  %11 = getelementptr inbounds %"class.gmx::AnalysisDataFrameAverager", ptr %10, i64 %9
  %12 = sext i32 %spec.select5 to i64
  %13 = load ptr, ptr %11, align 8
  %14 = getelementptr inbounds %"struct.gmx::AnalysisDataFrameAverager::AverageItem", ptr %13, i64 %12, i32 2
  %15 = load i32, ptr %14, align 8
  ret i32 %15
}